target datalayout = "e-m:e-p270:32:32-p271:32:32-p272:64:64-i64:64-i128:128-f80:128-n8:16:32:64-S128"
target triple = "x86_64-pc-linux-gnu"

%struct.evp_test_st = type { %struct.stanza_st, ptr, i32, ptr, ptr, ptr, ptr, ptr, ptr, i32 }
%struct.stanza_st = type { ptr, ptr, i32, i32, i32, i32, i32, i32, [150 x %struct.pair_st], ptr, [32768 x i8] }
%struct.pair_st = type { ptr, ptr }
%struct.ossl_param_st = type { ptr, i32, ptr, i64, i64 }

@.str.29 = private unnamed_addr constant [27 x i8] c"../openssl/test/evp_test.c\00", align 1
@fips_indicator_callback_unapproved_count = internal global i32 0, align 4
@.str.131 = private unnamed_addr constant [15 x i8] c"fips-indicator\00", align 1
@.str.132 = private unnamed_addr constant [41 x i8] c"Test is not expected to be FIPS approved\00", align 1
@.str.133 = private unnamed_addr constant [37 x i8] c"Test is expected to be FIPS approved\00", align 1

; Function Attrs: nounwind uwtable
define internal i32 @check_fips_approved(ptr noundef %0, i32 noundef %1) #0 {
  %3 = alloca i32, align 4
  %4 = alloca ptr, align 8
  %5 = alloca i32, align 4
  store ptr %0, ptr %4, align 8, !tbaa !15
  store i32 %1, ptr %5, align 4, !tbaa !9
  %6 = load ptr, ptr %4, align 8, !tbaa !15
  %7 = getelementptr inbounds nuw %struct.evp_test_st, ptr %6, i32 0, i32 9
  %8 = load i32, ptr %7, align 8, !tbaa !59
  %9 = icmp ne i32 %8, 0
  br i1 %9, label %10, label %18

10:                                               ; preds = %2
  %11 = load i32, ptr %5, align 4, !tbaa !9
  %12 = icmp eq i32 %11, 1
  br i1 %12, label %16, label %13

13:                                               ; preds = %10
  %14 = load i32, ptr @fips_indicator_callback_unapproved_count, align 4, !tbaa !9
  %15 = icmp eq i32 %14, 0
  br i1 %15, label %16, label %17

16:                                               ; preds = %13, %10
  call void (ptr, i32, ptr, ...) @test_error(ptr noundef @.str.29, i32 noundef 123, ptr noundef @.str.132)
  store i32 0, ptr %3, align 4
  br label %27

17:                                               ; preds = %13
  br label %26

18:                                               ; preds = %2
  %19 = load i32, ptr %5, align 4, !tbaa !9
  %20 = icmp eq i32 %19, 0
  br i1 %20, label %24, label %21

21:                                               ; preds = %18
  %22 = load i32, ptr @fips_indicator_callback_unapproved_count, align 4, !tbaa !9
  %23 = icmp sgt i32 %22, 0
  br i1 %23, label %24, label %25

24:                                               ; preds = %21, %18
  call void (ptr, i32, ptr, ...) @test_error(ptr noundef @.str.29, i32 noundef 128, ptr noundef @.str.133)
  store i32 0, ptr %3, align 4
  br label %27

25:                                               ; preds = %21
  br label %26

26:                                               ; preds = %25, %17
  store i32 1, ptr %3, align 4
  br label %27

27:                                               ; preds = %26, %24, %16
  %28 = load i32, ptr %3, align 4
  ret i32 %28
}

; Function Attrs: nounwind uwtable
define internal i32 @pkey_check_fips_approved(ptr noundef %0, ptr noundef %1) #0 {
  %3 = alloca i32, align 4
  %4 = alloca ptr, align 8
  %5 = alloca ptr, align 8
  %6 = alloca [2 x %struct.ossl_param_st], align 16
  %7 = alloca i32, align 4
  %8 = alloca ptr, align 8
  %9 = alloca i32, align 4
  %10 = alloca %struct.ossl_param_st, align 8
  store ptr %0, ptr %4, align 8, !tbaa !229
  store ptr %1, ptr %5, align 8, !tbaa !15
  call void @llvm.lifetime.start.p0(i64 80, ptr %6) #10
  call void @llvm.memset.p0.i64(ptr align 16 %6, i8 0, i64 80, i1 false)
  call void @llvm.lifetime.start.p0(i64 4, ptr %7) #10
  store i32 1, ptr %7, align 4, !tbaa !9
  call void @llvm.lifetime.start.p0(i64 8, ptr %8) #10
  %11 = load ptr, ptr %4, align 8, !tbaa !229
  %12 = call ptr @EVP_PKEY_CTX_gettable_params(ptr noundef %11)
  store ptr %12, ptr %8, align 8, !tbaa !33
  %13 = load ptr, ptr %8, align 8, !tbaa !33
  %14 = icmp eq ptr %13, null
  br i1 %14, label %19, label %15

15:                                               ; preds = %2
  %16 = load ptr, ptr %8, align 8, !tbaa !33
  %17 = call ptr @OSSL_PARAM_locate_const(ptr noundef %16, ptr noundef @.str.131)
  %18 = icmp eq ptr %17, null
  br i1 %18, label %19, label %20

19:                                               ; preds = %15, %2
  store i32 1, ptr %3, align 4
  store i32 1, ptr %9, align 4
  br label %36

20:                                               ; preds = %15
  %21 = load ptr, ptr %4, align 8, !tbaa !229
  %22 = call ptr @EVP_PKEY_CTX_gettable_params(ptr noundef %21)
  %23 = icmp eq ptr %22, null
  br i1 %23, label %24, label %25

24:                                               ; preds = %20
  store i32 1, ptr %3, align 4
  store i32 1, ptr %9, align 4
  br label %36

25:                                               ; preds = %20
  %26 = getelementptr inbounds [2 x %struct.ossl_param_st], ptr %6, i64 0, i64 0
  call void @llvm.lifetime.start.p0(i64 40, ptr %10) #10
  call void @OSSL_PARAM_construct_int(ptr dead_on_unwind writable sret(%struct.ossl_param_st) align 8 %10, ptr noundef @.str.131, ptr noundef %7)
  call void @llvm.memcpy.p0.p0.i64(ptr align 16 %26, ptr align 8 %10, i64 40, i1 false), !tbaa.struct !96
  call void @llvm.lifetime.end.p0(i64 40, ptr %10) #10
  %27 = load ptr, ptr %4, align 8, !tbaa !229
  %28 = getelementptr inbounds [2 x %struct.ossl_param_st], ptr %6, i64 0, i64 0
  %29 = call i32 @EVP_PKEY_CTX_get_params(ptr noundef %27, ptr noundef %28)
  %30 = icmp ne i32 %29, 0
  br i1 %30, label %32, label %31

31:                                               ; preds = %25
  store i32 0, ptr %3, align 4
  store i32 1, ptr %9, align 4
  br label %36

32:                                               ; preds = %25
  %33 = load ptr, ptr %5, align 8, !tbaa !15
  %34 = load i32, ptr %7, align 4, !tbaa !9
  %35 = call i32 @check_fips_approved(ptr noundef %33, i32 noundef %34)
  store i32 %35, ptr %3, align 4
  store i32 1, ptr %9, align 4
  br label %36

36:                                               ; preds = %32, %31, %24, %19
  call void @llvm.lifetime.end.p0(i64 8, ptr %8) #10
  call void @llvm.lifetime.end.p0(i64 4, ptr %7) #10
  call void @llvm.lifetime.end.p0(i64 80, ptr %6) #10
  %37 = load i32, ptr %3, align 4
  ret i32 %37
}