; Function Attrs: nounwind uwtable
define internal fastcc range(i32 0, 2) i32 @pkey_check_fips_approved(ptr noundef %0, ptr noundef readonly captures(none) %1) unnamed_addr #1 {
  %3 = alloca [2 x %struct.ossl_param_st], align 16
  %4 = alloca i32, align 4
  call void @llvm.lifetime.start.p0(i64 80, ptr nonnull %3) #10
  call void @llvm.memset.p0.i64(ptr noundef nonnull align 16 dereferenceable(80) %3, i8 0, i64 80, i1 false)
  call void @llvm.lifetime.start.p0(i64 4, ptr nonnull %4) #10
  store i32 1, ptr %4, align 4, !tbaa !4
  %5 = tail call ptr @EVP_PKEY_CTX_gettable_params(ptr noundef %0) #10
  %6 = icmp eq ptr %5, null
  br i1 %6, label %check_fips_approved.exit, label %7

7:                                                ; preds = %2
  %8 = tail call ptr @OSSL_PARAM_locate_const(ptr noundef nonnull %5, ptr noundef nonnull @.str.131) #10
  %9 = icmp eq ptr %8, null
  br i1 %9, label %check_fips_approved.exit, label %10

10:                                               ; preds = %7
  %11 = tail call ptr @EVP_PKEY_CTX_gettable_params(ptr noundef %0) #10
  %12 = icmp eq ptr %11, null
  br i1 %12, label %check_fips_approved.exit, label %13

13:                                               ; preds = %10
  call void @OSSL_PARAM_construct_int(ptr dead_on_unwind nonnull writable sret(%struct.ossl_param_st) align 8 %3, ptr noundef nonnull @.str.131, ptr noundef nonnull %4) #10
  %14 = call i32 @EVP_PKEY_CTX_get_params(ptr noundef %0, ptr noundef nonnull %3) #10
  %.not = icmp eq i32 %14, 0
  br i1 %.not, label %check_fips_approved.exit, label %15

15:                                               ; preds = %13
  %16 = load i32, ptr %4, align 4, !tbaa !4
  %17 = getelementptr i8, ptr %1, i64 35280
  %.val = load i32, ptr %17, align 8, !tbaa !27
  %.not.i = icmp eq i32 %.val, 0
  %18 = load i32, ptr @fips_indicator_callback_unapproved_count, align 4
  br i1 %.not.i, label %23, label %19

19:                                               ; preds = %15
  %20 = icmp eq i32 %16, 1
  %21 = icmp eq i32 %18, 0
  %or.cond.i = select i1 %20, i1 true, i1 %21
  br i1 %or.cond.i, label %22, label %check_fips_approved.exit

22:                                               ; preds = %19
  call void (ptr, i32, ptr, ...) @test_error(ptr noundef nonnull @.str.29, i32 noundef 123, ptr noundef nonnull @.str.132) #10
  br label %check_fips_approved.exit

23:                                               ; preds = %15
  %24 = icmp eq i32 %16, 0
  %25 = icmp sgt i32 %18, 0
  %or.cond3.i = select i1 %24, i1 true, i1 %25
  br i1 %or.cond3.i, label %26, label %check_fips_approved.exit

26:                                               ; preds = %23
  call void (ptr, i32, ptr, ...) @test_error(ptr noundef nonnull @.str.29, i32 noundef 128, ptr noundef nonnull @.str.133) #10
  br label %check_fips_approved.exit

check_fips_approved.exit:                         ; preds = %26, %23, %22, %19, %13, %10, %2, %7
  %.0 = phi i32 [ 1, %7 ], [ 1, %2 ], [ 1, %10 ], [ 0, %13 ], [ 0, %22 ], [ 0, %26 ], [ 1, %23 ], [ 1, %19 ]
  call void @llvm.lifetime.end.p0(i64 4, ptr nonnull %4) #10
  call void @llvm.lifetime.end.p0(i64 80, ptr nonnull %3) #10
  ret i32 %.0
}